target datalayout = "e-m:e-p270:32:32-p271:32:32-p272:64:64-i64:64-i128:128-f80:128-n8:16:32:64-S128"
target triple = "x86_64-pc-linux-gnu"

%struct.rsa_st = type { i32, ptr, i32, ptr, ptr, ptr, ptr, ptr, ptr, ptr, ptr, ptr, ptr, %struct.rsa_pss_params_30_st, ptr, ptr, %struct.crypto_ex_data_st, %struct.CRYPTO_REF_COUNT, i32, ptr, ptr, ptr, ptr, ptr, ptr, i32 }
%struct.rsa_pss_params_30_st = type { i32, %struct.anon, i32, i32 }
%struct.anon = type { i32, i32 }
%struct.crypto_ex_data_st = type { ptr, ptr }
%struct.CRYPTO_REF_COUNT = type { i32 }

; Function Attrs: nounwind uwtable
define i32 @ossl_rsa_check_private_exponent(ptr noundef %0, i32 noundef %1, ptr noundef %2) #0 {
  %4 = alloca i32, align 4
  %5 = alloca ptr, align 8
  %6 = alloca i32, align 4
  %7 = alloca ptr, align 8
  %8 = alloca i32, align 4
  %9 = alloca ptr, align 8
  %10 = alloca ptr, align 8
  %11 = alloca ptr, align 8
  %12 = alloca ptr, align 8
  %13 = alloca ptr, align 8
  %14 = alloca ptr, align 8
  %15 = alloca i32, align 4
  store ptr %0, ptr %5, align 8, !tbaa !3
  store i32 %1, ptr %6, align 4, !tbaa !10
  store ptr %2, ptr %7, align 8, !tbaa !8
  call void @llvm.lifetime.start.p0(i64 4, ptr %8) #3
  call void @llvm.lifetime.start.p0(i64 8, ptr %9) #3
  call void @llvm.lifetime.start.p0(i64 8, ptr %10) #3
  call void @llvm.lifetime.start.p0(i64 8, ptr %11) #3
  call void @llvm.lifetime.start.p0(i64 8, ptr %12) #3
  call void @llvm.lifetime.start.p0(i64 8, ptr %13) #3
  call void @llvm.lifetime.start.p0(i64 8, ptr %14) #3
  %16 = load ptr, ptr %5, align 8, !tbaa !3
  %17 = getelementptr inbounds nuw %struct.rsa_st, ptr %16, i32 0, i32 7
  %18 = load ptr, ptr %17, align 8, !tbaa !33
  %19 = call i32 @BN_num_bits(ptr noundef %18)
  %20 = load i32, ptr %6, align 4, !tbaa !10
  %21 = ashr i32 %20, 1
  %22 = icmp sle i32 %19, %21
  br i1 %22, label %23, label %24

23:                                               ; preds = %3
  store i32 0, ptr %4, align 4
  store i32 1, ptr %15, align 4
  br label %99

24:                                               ; preds = %3
  %25 = load ptr, ptr %7, align 8, !tbaa !8
  call void @BN_CTX_start(ptr noundef %25)
  %26 = load ptr, ptr %7, align 8, !tbaa !8
  %27 = call ptr @BN_CTX_get(ptr noundef %26)
  store ptr %27, ptr %9, align 8, !tbaa !12
  %28 = load ptr, ptr %7, align 8, !tbaa !8
  %29 = call ptr @BN_CTX_get(ptr noundef %28)
  store ptr %29, ptr %10, align 8, !tbaa !12
  %30 = load ptr, ptr %7, align 8, !tbaa !8
  %31 = call ptr @BN_CTX_get(ptr noundef %30)
  store ptr %31, ptr %11, align 8, !tbaa !12
  %32 = load ptr, ptr %7, align 8, !tbaa !8
  %33 = call ptr @BN_CTX_get(ptr noundef %32)
  store ptr %33, ptr %12, align 8, !tbaa !12
  %34 = load ptr, ptr %7, align 8, !tbaa !8
  %35 = call ptr @BN_CTX_get(ptr noundef %34)
  store ptr %35, ptr %13, align 8, !tbaa !12
  %36 = load ptr, ptr %7, align 8, !tbaa !8
  %37 = call ptr @BN_CTX_get(ptr noundef %36)
  store ptr %37, ptr %14, align 8, !tbaa !12
  %38 = load ptr, ptr %14, align 8, !tbaa !12
  %39 = icmp ne ptr %38, null
  br i1 %39, label %40, label %47

40:                                               ; preds = %24
  %41 = load ptr, ptr %9, align 8, !tbaa !12
  call void @BN_set_flags(ptr noundef %41, i32 noundef 4)
  %42 = load ptr, ptr %10, align 8, !tbaa !12
  call void @BN_set_flags(ptr noundef %42, i32 noundef 4)
  %43 = load ptr, ptr %11, align 8, !tbaa !12
  call void @BN_set_flags(ptr noundef %43, i32 noundef 4)
  %44 = load ptr, ptr %12, align 8, !tbaa !12
  call void @BN_set_flags(ptr noundef %44, i32 noundef 4)
  %45 = load ptr, ptr %13, align 8, !tbaa !12
  call void @BN_set_flags(ptr noundef %45, i32 noundef 4)
  %46 = load ptr, ptr %14, align 8, !tbaa !12
  call void @BN_set_flags(ptr noundef %46, i32 noundef 4)
  store i32 1, ptr %8, align 4, !tbaa !10
  br label %48

47:                                               ; preds = %24
  store i32 0, ptr %8, align 4, !tbaa !10
  br label %48

48:                                               ; preds = %47, %40
  %49 = load i32, ptr %8, align 4, !tbaa !10
  %50 = icmp ne i32 %49, 0
  br i1 %50, label %51, label %89

51:                                               ; preds = %48
  %52 = load ptr, ptr %7, align 8, !tbaa !8
  %53 = load ptr, ptr %5, align 8, !tbaa !3
  %54 = getelementptr inbounds nuw %struct.rsa_st, ptr %53, i32 0, i32 8
  %55 = load ptr, ptr %54, align 8, !tbaa !30
  %56 = load ptr, ptr %5, align 8, !tbaa !3
  %57 = getelementptr inbounds nuw %struct.rsa_st, ptr %56, i32 0, i32 9
  %58 = load ptr, ptr %57, align 8, !tbaa !31
  %59 = load ptr, ptr %12, align 8, !tbaa !12
  %60 = load ptr, ptr %14, align 8, !tbaa !12
  %61 = load ptr, ptr %10, align 8, !tbaa !12
  %62 = load ptr, ptr %11, align 8, !tbaa !12
  %63 = load ptr, ptr %13, align 8, !tbaa !12
  %64 = call i32 @ossl_rsa_get_lcm(ptr noundef %52, ptr noundef %55, ptr noundef %58, ptr noundef %59, ptr noundef %60, ptr noundef %61, ptr noundef %62, ptr noundef %63)
  %65 = icmp eq i32 %64, 1
  br i1 %65, label %66, label %89

66:                                               ; preds = %51
  %67 = load ptr, ptr %5, align 8, !tbaa !3
  %68 = getelementptr inbounds nuw %struct.rsa_st, ptr %67, i32 0, i32 7
  %69 = load ptr, ptr %68, align 8, !tbaa !33
  %70 = load ptr, ptr %12, align 8, !tbaa !12
  %71 = call i32 @BN_cmp(ptr noundef %69, ptr noundef %70)
  %72 = icmp slt i32 %71, 0
  br i1 %72, label %73, label %89

73:                                               ; preds = %66
  %74 = load ptr, ptr %9, align 8, !tbaa !12
  %75 = load ptr, ptr %5, align 8, !tbaa !3
  %76 = getelementptr inbounds nuw %struct.rsa_st, ptr %75, i32 0, i32 6
  %77 = load ptr, ptr %76, align 8, !tbaa !32
  %78 = load ptr, ptr %5, align 8, !tbaa !3
  %79 = getelementptr inbounds nuw %struct.rsa_st, ptr %78, i32 0, i32 7
  %80 = load ptr, ptr %79, align 8, !tbaa !33
  %81 = load ptr, ptr %12, align 8, !tbaa !12
  %82 = load ptr, ptr %7, align 8, !tbaa !8
  %83 = call i32 @BN_mod_mul(ptr noundef %74, ptr noundef %77, ptr noundef %80, ptr noundef %81, ptr noundef %82)
  %84 = icmp ne i32 %83, 0
  br i1 %84, label %85, label %89

85:                                               ; preds = %73
  %86 = load ptr, ptr %9, align 8, !tbaa !12
  %87 = call i32 @BN_is_one(ptr noundef %86)
  %88 = icmp ne i32 %87, 0
  br label %89

89:                                               ; preds = %85, %73, %66, %51, %48
  %90 = phi i1 [ false, %73 ], [ false, %66 ], [ false, %51 ], [ false, %48 ], [ %88, %85 ]
  %91 = zext i1 %90 to i32
  store i32 %91, ptr %8, align 4, !tbaa !10
  %92 = load ptr, ptr %9, align 8, !tbaa !12
  call void @BN_clear(ptr noundef %92)
  %93 = load ptr, ptr %10, align 8, !tbaa !12
  call void @BN_clear(ptr noundef %93)
  %94 = load ptr, ptr %11, align 8, !tbaa !12
  call void @BN_clear(ptr noundef %94)
  %95 = load ptr, ptr %12, align 8, !tbaa !12
  call void @BN_clear(ptr noundef %95)
  %96 = load ptr, ptr %14, align 8, !tbaa !12
  call void @BN_clear(ptr noundef %96)
  %97 = load ptr, ptr %7, align 8, !tbaa !8
  call void @BN_CTX_end(ptr noundef %97)
  %98 = load i32, ptr %8, align 4, !tbaa !10
  store i32 %98, ptr %4, align 4
  store i32 1, ptr %15, align 4
  br label %99

99:                                               ; preds = %89, %23
  call void @llvm.lifetime.end.p0(i64 8, ptr %14) #3
  call void @llvm.lifetime.end.p0(i64 8, ptr %13) #3
  call void @llvm.lifetime.end.p0(i64 8, ptr %12) #3
  call void @llvm.lifetime.end.p0(i64 8, ptr %11) #3
  call void @llvm.lifetime.end.p0(i64 8, ptr %10) #3
  call void @llvm.lifetime.end.p0(i64 8, ptr %9) #3
  call void @llvm.lifetime.end.p0(i64 4, ptr %8) #3
  %100 = load i32, ptr %4, align 4
  ret i32 %100
}