; Function Attrs: nounwind uwtable
define range(i32 0, 2) i32 @ossl_rsa_check_private_exponent(ptr noundef readonly captures(none) %0, i32 noundef %1, ptr noundef %2) local_unnamed_addr #0 {
  %4 = getelementptr inbounds nuw i8, ptr %0, i64 56
  %5 = load ptr, ptr %4, align 8, !tbaa !27
  %6 = tail call i32 @BN_num_bits(ptr noundef %5) #3
  %7 = ashr i32 %1, 1
  %.not = icmp sgt i32 %6, %7
  br i1 %.not, label %8, label %35

8:                                                ; preds = %3
  tail call void @BN_CTX_start(ptr noundef %2) #3
  %9 = tail call ptr @BN_CTX_get(ptr noundef %2) #3
  %10 = tail call ptr @BN_CTX_get(ptr noundef %2) #3
  %11 = tail call ptr @BN_CTX_get(ptr noundef %2) #3
  %12 = tail call ptr @BN_CTX_get(ptr noundef %2) #3
  %13 = tail call ptr @BN_CTX_get(ptr noundef %2) #3
  %14 = tail call ptr @BN_CTX_get(ptr noundef %2) #3
  %.not42 = icmp eq ptr %14, null
  br i1 %.not42, label %.critedge, label %15

15:                                               ; preds = %8
  tail call void @BN_set_flags(ptr noundef %9, i32 noundef 4) #3
  tail call void @BN_set_flags(ptr noundef %10, i32 noundef 4) #3
  tail call void @BN_set_flags(ptr noundef %11, i32 noundef 4) #3
  tail call void @BN_set_flags(ptr noundef %12, i32 noundef 4) #3
  tail call void @BN_set_flags(ptr noundef %13, i32 noundef 4) #3
  tail call void @BN_set_flags(ptr noundef nonnull %14, i32 noundef 4) #3
  %16 = getelementptr inbounds nuw i8, ptr %0, i64 64
  %17 = load ptr, ptr %16, align 8, !tbaa !24
  %18 = getelementptr inbounds nuw i8, ptr %0, i64 72
  %19 = load ptr, ptr %18, align 8, !tbaa !25
  %20 = tail call i32 @ossl_rsa_get_lcm(ptr noundef %2, ptr noundef %17, ptr noundef %19, ptr noundef %12, ptr noundef nonnull %14, ptr noundef %10, ptr noundef %11, ptr noundef %13)
  %.not44 = icmp eq i32 %20, 0
  br i1 %.not44, label %.critedge, label %21

21:                                               ; preds = %15
  %22 = load ptr, ptr %4, align 8, !tbaa !27
  %23 = tail call i32 @BN_cmp(ptr noundef %22, ptr noundef %12) #3
  %24 = icmp slt i32 %23, 0
  br i1 %24, label %25, label %.critedge

25:                                               ; preds = %21
  %26 = getelementptr inbounds nuw i8, ptr %0, i64 48
  %27 = load ptr, ptr %26, align 8, !tbaa !26
  %28 = load ptr, ptr %4, align 8, !tbaa !27
  %29 = tail call i32 @BN_mod_mul(ptr noundef %9, ptr noundef %27, ptr noundef %28, ptr noundef %12, ptr noundef %2) #3
  %.not45 = icmp eq i32 %29, 0
  br i1 %.not45, label %.critedge, label %30

30:                                               ; preds = %25
  %31 = tail call i32 @BN_is_one(ptr noundef %9) #3
  %32 = icmp ne i32 %31, 0
  %33 = zext i1 %32 to i32
  br label %.critedge

.critedge:                                        ; preds = %8, %30, %25, %21, %15
  %34 = phi i32 [ 0, %25 ], [ 0, %21 ], [ 0, %15 ], [ %33, %30 ], [ 0, %8 ]
  tail call void @BN_clear(ptr noundef %9) #3
  tail call void @BN_clear(ptr noundef %10) #3
  tail call void @BN_clear(ptr noundef %11) #3
  tail call void @BN_clear(ptr noundef %12) #3
  tail call void @BN_clear(ptr noundef %14) #3
  tail call void @BN_CTX_end(ptr noundef %2) #3
  br label %35

35:                                               ; preds = %3, %.critedge
  %.0 = phi i32 [ %34, %.critedge ], [ 0, %3 ]
  ret i32 %.0
}